target datalayout = "e-m:e-p270:32:32-p271:32:32-p272:64:64-i64:64-i128:128-f80:128-n8:16:32:64-S128"
target triple = "x86_64-unknown-linux-gnu"

; Function Attrs: nounwind uwtable
define internal i32 @sdsHdrSize(i8 noundef signext %type) #0 {
entry:
  %retval = alloca i32, align 4
  %type.addr = alloca i8, align 1
  store i8 %type, ptr %type.addr, align 1
  %0 = load i8, ptr %type.addr, align 1
  %conv = sext i8 %0 to i32
  %and = and i32 %conv, 7
  switch i32 %and, label %sw.epilog [
    i32 0, label %sw.bb
    i32 1, label %sw.bb1
    i32 2, label %sw.bb2
    i32 3, label %sw.bb3
    i32 4, label %sw.bb4
  ]

sw.bb:                                            ; preds = %entry
  store i32 1, ptr %retval, align 4
  br label %return

sw.bb1:                                           ; preds = %entry
  store i32 3, ptr %retval, align 4
  br label %return

sw.bb2:                                           ; preds = %entry
  store i32 5, ptr %retval, align 4
  br label %return

sw.bb3:                                           ; preds = %entry
  store i32 9, ptr %retval, align 4
  br label %return

sw.bb4:                                           ; preds = %entry
  store i32 17, ptr %retval, align 4
  br label %return

sw.epilog:                                        ; preds = %entry
  store i32 0, ptr %retval, align 4
  br label %return

return:                                           ; preds = %sw.epilog, %sw.bb4, %sw.bb3, %sw.bb2, %sw.bb1, %sw.bb
  %1 = load i32, ptr %retval, align 4
  ret i32 %1
}

; Function Attrs: nounwind uwtable
define dso_local void @sdsfree(ptr noundef %s) #0 {
entry:
  %s.addr = alloca ptr, align 8
  store ptr %s, ptr %s.addr, align 8
  %0 = load ptr, ptr %s.addr, align 8
  %cmp = icmp eq ptr %0, null
  br i1 %cmp, label %if.then, label %if.end

if.then:                                          ; preds = %entry
  br label %return

if.end:                                           ; preds = %entry
  %1 = load ptr, ptr %s.addr, align 8
  %2 = load ptr, ptr %s.addr, align 8
  %arrayidx = getelementptr inbounds i8, ptr %2, i64 -1
  %3 = load i8, ptr %arrayidx, align 1
  %call = call i32 @sdsHdrSize(i8 noundef signext %3)
  %idx.ext = sext i32 %call to i64
  %idx.neg = sub i64 0, %idx.ext
  %add.ptr = getelementptr inbounds i8, ptr %1, i64 %idx.neg
  call void @zfree(ptr noundef %add.ptr)
  br label %return

return:                                           ; preds = %if.end, %if.then
  ret void
}

; Function Attrs: nounwind uwtable
define dso_local void @sdsfreesplitres(ptr noundef %tokens, i32 noundef %count) #0 {
entry:
  %tokens.addr = alloca ptr, align 8
  %count.addr = alloca i32, align 4
  store ptr %tokens, ptr %tokens.addr, align 8
  store i32 %count, ptr %count.addr, align 4
  %0 = load ptr, ptr %tokens.addr, align 8
  %tobool = icmp ne ptr %0, null
  br i1 %tobool, label %if.end, label %if.then

if.then:                                          ; preds = %entry
  br label %return

if.end:                                           ; preds = %entry
  br label %while.cond

while.cond:                                       ; preds = %while.body, %if.end
  %1 = load i32, ptr %count.addr, align 4
  %dec = add nsw i32 %1, -1
  store i32 %dec, ptr %count.addr, align 4
  %tobool1 = icmp ne i32 %1, 0
  br i1 %tobool1, label %while.body, label %while.end

while.body:                                       ; preds = %while.cond
  %2 = load ptr, ptr %tokens.addr, align 8
  %3 = load i32, ptr %count.addr, align 4
  %idxprom = sext i32 %3 to i64
  %arrayidx = getelementptr inbounds ptr, ptr %2, i64 %idxprom
  %4 = load ptr, ptr %arrayidx, align 8
  call void @sdsfree(ptr noundef %4)
  br label %while.cond, !llvm.loop !13

while.end:                                        ; preds = %while.cond
  %5 = load ptr, ptr %tokens.addr, align 8
  call void @zfree(ptr noundef %5)
  br label %return

return:                                           ; preds = %while.end, %if.then
  ret void
}