; Function Attrs: nounwind uwtable
define dso_local void @sdsfreesplitres(ptr noundef %tokens, i32 noundef %count) local_unnamed_addr #0 {
entry:
  %tobool.not = icmp eq ptr %tokens, null
  br i1 %tobool.not, label %return, label %while.cond.preheader

while.cond.preheader:                             ; preds = %entry
  %tobool1.not4 = icmp eq i32 %count, 0
  br i1 %tobool1.not4, label %while.end, label %while.body.preheader

while.body.preheader:                             ; preds = %while.cond.preheader
  %0 = sext i32 %count to i64
  br label %while.body

while.body:                                       ; preds = %while.body.preheader, %sdsfree.exit
  %indvars.iv = phi i64 [ %0, %while.body.preheader ], [ %indvars.iv.next, %sdsfree.exit ]
  %indvars.iv.next = add nsw i64 %indvars.iv, -1
  %arrayidx = getelementptr inbounds ptr, ptr %tokens, i64 %indvars.iv.next
  %1 = load ptr, ptr %arrayidx, align 8
  %cmp.i = icmp eq ptr %1, null
  br i1 %cmp.i, label %sdsfree.exit, label %if.end.i

if.end.i:                                         ; preds = %while.body
  %arrayidx.i = getelementptr inbounds i8, ptr %1, i64 -1
  %2 = load i8, ptr %arrayidx.i, align 1
  %3 = and i8 %2, 7
  %4 = icmp ult i8 %3, 5
  br i1 %4, label %switch.lookup, label %sdsHdrSize.exit.i

switch.lookup:                                    ; preds = %if.end.i
  %5 = zext nneg i8 %3 to i64
  %switch.gep = getelementptr inbounds [5 x i64], ptr @switch.table.sdstemplate.8, i64 0, i64 %5
  %switch.load = load i64, ptr %switch.gep, align 8
  br label %sdsHdrSize.exit.i

sdsHdrSize.exit.i:                                ; preds = %if.end.i, %switch.lookup
  %retval.0.i.neg.i = phi i64 [ %switch.load, %switch.lookup ], [ 0, %if.end.i ]
  %add.ptr.i = getelementptr inbounds i8, ptr %1, i64 %retval.0.i.neg.i
  tail call void @zfree(ptr noundef nonnull %add.ptr.i) #25
  br label %sdsfree.exit

sdsfree.exit:                                     ; preds = %while.body, %sdsHdrSize.exit.i
  %6 = and i64 %indvars.iv.next, 4294967295
  %tobool1.not = icmp eq i64 %6, 0
  br i1 %tobool1.not, label %while.end, label %while.body, !llvm.loop !13

while.end:                                        ; preds = %sdsfree.exit, %while.cond.preheader
  tail call void @zfree(ptr noundef nonnull %tokens) #25
  br label %return

return:                                           ; preds = %entry, %while.end
  ret void
}